ARM GAS  C:\Users\emili\AppData\Local\Temp\ccjLZZgI.s 			page 1


   1              		.syntax unified
   2              		.cpu cortex-m3
   3              		.fpu softvfp
   4              		.eabi_attribute 20, 1
   5              		.eabi_attribute 21, 1
   6              		.eabi_attribute 23, 3
   7              		.eabi_attribute 24, 1
   8              		.eabi_attribute 25, 1
   9              		.eabi_attribute 26, 1
  10              		.eabi_attribute 30, 1
  11              		.eabi_attribute 34, 1
  12              		.eabi_attribute 18, 4
  13              		.thumb
  14              		.syntax unified
  15              		.file	"main.c"
  16              		.text
  17              	.Ltext0:
  18              		.cfi_sections	.debug_frame
  19              		.section	.text.IRQ_UART,"ax",%progbits
  20              		.align	2
  21              		.global	IRQ_UART
  22              		.thumb
  23              		.thumb_func
  24              		.type	IRQ_UART, %function
  25              	IRQ_UART:
  26              	.LFB65:
  27              		.file 1 "main.c"
   1:main.c        **** /* ========================================
   2:main.c        ****  *
   3:main.c        ****  * Copyright YOUR COMPANY, THE YEAR
   4:main.c        ****  * All Rights Reserved
   5:main.c        ****  * UNPUBLISHED, LICENSED SOFTWARE.
   6:main.c        ****  *
   7:main.c        ****  * CONFIDENTIAL AND PROPRIETARY INFORMATION
   8:main.c        ****  * WHICH IS THE PROPERTY OF your company.
   9:main.c        ****  *
  10:main.c        ****  * ========================================
  11:main.c        ****  */
  12:main.c        **** #include "project.h"
  13:main.c        **** #include <stdio.h> // Para el uso de la función sprintf()
  14:main.c        **** #define CR 0x0D
  15:main.c        **** #define CL 0x0A
  16:main.c        **** #define Newline()     \
  17:main.c        ****     UART_PutChar(CR); \
  18:main.c        ****     UART_PutChar(CL);
  19:main.c        **** char uart_in;
  20:main.c        **** char cadena_uart[100];
  21:main.c        **** char MODO;
  22:main.c        **** char enable_led = '0';
  23:main.c        **** 
  24:main.c        **** CY_ISR(ISR_Timer1)
  25:main.c        **** { // timer de 2 segundos para apagar/prender la coneccion dependiendo del PP
  26:main.c        ****     Timer1_ReadStatusRegister();
  27:main.c        ****     if (enable_led == '1')
  28:main.c        ****     { // SI ESTA EN MODO ALARMA, EL LED SE PRENDE(1s).
  29:main.c        **** 
  30:main.c        ****         if (LED_Read() == 1)
ARM GAS  C:\Users\emili\AppData\Local\Temp\ccjLZZgI.s 			page 2


  31:main.c        ****         { // SI ES QUE ESTA PRENDIDO SE APAGA
  32:main.c        **** 
  33:main.c        ****             LED_Write(0);
  34:main.c        ****         }
  35:main.c        ****         else
  36:main.c        ****         {
  37:main.c        ****             LED_Write(1);
  38:main.c        ****         }
  39:main.c        ****     }
  40:main.c        **** }
  41:main.c        **** CY_ISR(IRQ_UART)
  42:main.c        **** { // Validado, funciona y lee valores del 1 a 6.
  28              		.loc 1 42 0
  29              		.cfi_startproc
  30              		@ args = 0, pretend = 0, frame = 0
  31              		@ frame_needed = 0, uses_anonymous_args = 0
  32 0000 08B5     		push	{r3, lr}
  33              		.cfi_def_cfa_offset 8
  34              		.cfi_offset 3, -8
  35              		.cfi_offset 14, -4
  43:main.c        ****     uart_in = UART_ReadRxData();
  36              		.loc 1 43 0
  37 0002 FFF7FEFF 		bl	UART_ReadRxData
  38              	.LVL0:
  39 0006 104B     		ldr	r3, .L10
  40 0008 1870     		strb	r0, [r3]
  44:main.c        ****     if (!((uart_in >= '1') && (uart_in <= '4')))
  41              		.loc 1 44 0
  42 000a A0F13103 		sub	r3, r0, #49
  43 000e DBB2     		uxtb	r3, r3
  44 0010 032B     		cmp	r3, #3
  45 0012 02D9     		bls	.L2
  45:main.c        ****     {
  46:main.c        ****         MODO = 0; // se ponen las condiciones de los unicos valores de entrada que se aceptan, de o
  46              		.loc 1 46 0
  47 0014 0022     		movs	r2, #0
  48 0016 0D4B     		ldr	r3, .L10+4
  49 0018 1A70     		strb	r2, [r3]
  50              	.L2:
  47:main.c        ****     }
  48:main.c        ****     switch (uart_in)
  51              		.loc 1 48 0
  52 001a 3138     		subs	r0, r0, #49
  53 001c 0328     		cmp	r0, #3
  54 001e 12D8     		bhi	.L1
  55 0020 DFE800F0 		tbb	[pc, r0]
  56              	.L5:
  57 0024 02       		.byte	(.L4-.L5)/2
  58 0025 06       		.byte	(.L6-.L5)/2
  59 0026 0A       		.byte	(.L7-.L5)/2
  60 0027 0E       		.byte	(.L8-.L5)/2
  61              		.p2align 1
  62              	.L4:
  49:main.c        ****     {
  50:main.c        ****     case '1':
  51:main.c        ****     {
  52:main.c        ****         MODO = '1';
ARM GAS  C:\Users\emili\AppData\Local\Temp\ccjLZZgI.s 			page 3


  63              		.loc 1 52 0
  64 0028 3122     		movs	r2, #49
  65 002a 084B     		ldr	r3, .L10+4
  66 002c 1A70     		strb	r2, [r3]
  53:main.c        ****         break;
  67              		.loc 1 53 0
  68 002e 08BD     		pop	{r3, pc}
  69              	.L6:
  54:main.c        ****     }
  55:main.c        ****     case '2':
  56:main.c        ****     {
  57:main.c        ****         MODO = '2';
  70              		.loc 1 57 0
  71 0030 3222     		movs	r2, #50
  72 0032 064B     		ldr	r3, .L10+4
  73 0034 1A70     		strb	r2, [r3]
  58:main.c        ****         break;
  74              		.loc 1 58 0
  75 0036 08BD     		pop	{r3, pc}
  76              	.L7:
  59:main.c        ****     }
  60:main.c        ****     case '3':
  61:main.c        ****     {
  62:main.c        ****         MODO = '3';
  77              		.loc 1 62 0
  78 0038 3322     		movs	r2, #51
  79 003a 044B     		ldr	r3, .L10+4
  80 003c 1A70     		strb	r2, [r3]
  63:main.c        ****         break;
  81              		.loc 1 63 0
  82 003e 08BD     		pop	{r3, pc}
  83              	.L8:
  64:main.c        ****     }
  65:main.c        ****     case '4':
  66:main.c        ****     {
  67:main.c        **** 
  68:main.c        ****         MODO = '4';
  84              		.loc 1 68 0
  85 0040 3422     		movs	r2, #52
  86 0042 024B     		ldr	r3, .L10+4
  87 0044 1A70     		strb	r2, [r3]
  88              	.L1:
  89 0046 08BD     		pop	{r3, pc}
  90              	.L11:
  91              		.align	2
  92              	.L10:
  93 0048 00000000 		.word	uart_in
  94 004c 00000000 		.word	MODO
  95              		.cfi_endproc
  96              	.LFE65:
  97              		.size	IRQ_UART, .-IRQ_UART
  98              		.section	.text.ISR_Timer1,"ax",%progbits
  99              		.align	2
 100              		.global	ISR_Timer1
 101              		.thumb
 102              		.thumb_func
 103              		.type	ISR_Timer1, %function
ARM GAS  C:\Users\emili\AppData\Local\Temp\ccjLZZgI.s 			page 4


 104              	ISR_Timer1:
 105              	.LFB64:
  25:main.c        ****     Timer1_ReadStatusRegister();
 106              		.loc 1 25 0
 107              		.cfi_startproc
 108              		@ args = 0, pretend = 0, frame = 0
 109              		@ frame_needed = 0, uses_anonymous_args = 0
 110 0000 08B5     		push	{r3, lr}
 111              		.cfi_def_cfa_offset 8
 112              		.cfi_offset 3, -8
 113              		.cfi_offset 14, -4
  26:main.c        ****     if (enable_led == '1')
 114              		.loc 1 26 0
 115 0002 FFF7FEFF 		bl	Timer1_ReadStatusRegister
 116              	.LVL1:
  27:main.c        ****     { // SI ESTA EN MODO ALARMA, EL LED SE PRENDE(1s).
 117              		.loc 1 27 0
 118 0006 084B     		ldr	r3, .L16
 119 0008 1B78     		ldrb	r3, [r3]	@ zero_extendqisi2
 120 000a 312B     		cmp	r3, #49
 121 000c 0AD1     		bne	.L12
  30:main.c        ****         { // SI ES QUE ESTA PRENDIDO SE APAGA
 122              		.loc 1 30 0
 123 000e FFF7FEFF 		bl	LED_Read
 124              	.LVL2:
 125 0012 0128     		cmp	r0, #1
 126 0014 03D1     		bne	.L14
  33:main.c        ****         }
 127              		.loc 1 33 0
 128 0016 0020     		movs	r0, #0
 129 0018 FFF7FEFF 		bl	LED_Write
 130              	.LVL3:
 131 001c 08BD     		pop	{r3, pc}
 132              	.L14:
  37:main.c        ****         }
 133              		.loc 1 37 0
 134 001e 0120     		movs	r0, #1
 135 0020 FFF7FEFF 		bl	LED_Write
 136              	.LVL4:
 137              	.L12:
 138 0024 08BD     		pop	{r3, pc}
 139              	.L17:
 140 0026 00BF     		.align	2
 141              	.L16:
 142 0028 00000000 		.word	.LANCHOR0
 143              		.cfi_endproc
 144              	.LFE64:
 145              		.size	ISR_Timer1, .-ISR_Timer1
 146              		.section	.text.menu,"ax",%progbits
 147              		.align	2
 148              		.global	menu
 149              		.thumb
 150              		.thumb_func
 151              		.type	menu, %function
 152              	menu:
 153              	.LFB66:
  69:main.c        ****         break;
ARM GAS  C:\Users\emili\AppData\Local\Temp\ccjLZZgI.s 			page 5


  70:main.c        ****     }
  71:main.c        ****     default:
  72:main.c        ****         break;
  73:main.c        ****     }
  74:main.c        **** }
  75:main.c        **** 
  76:main.c        **** void menu()
  77:main.c        **** {
 154              		.loc 1 77 0
 155              		.cfi_startproc
 156              		@ args = 0, pretend = 0, frame = 0
 157              		@ frame_needed = 0, uses_anonymous_args = 0
 158 0000 38B5     		push	{r3, r4, r5, lr}
 159              		.cfi_def_cfa_offset 16
 160              		.cfi_offset 3, -16
 161              		.cfi_offset 4, -12
 162              		.cfi_offset 5, -8
 163              		.cfi_offset 14, -4
  78:main.c        ****     sprintf(cadena_uart, "Seleccione una de los MODOS");
 164              		.loc 1 78 0
 165 0002 284C     		ldr	r4, .L20
 166 0004 284D     		ldr	r5, .L20+4
 167 0006 0FCD     		ldmia	r5!, {r0, r1, r2, r3}
 168 0008 2060     		str	r0, [r4]	@ unaligned
 169 000a 6160     		str	r1, [r4, #4]	@ unaligned
 170 000c A260     		str	r2, [r4, #8]	@ unaligned
 171 000e E360     		str	r3, [r4, #12]	@ unaligned
 172 0010 07CD     		ldmia	r5!, {r0, r1, r2}
 173 0012 2061     		str	r0, [r4, #16]	@ unaligned
 174 0014 6161     		str	r1, [r4, #20]	@ unaligned
 175 0016 A261     		str	r2, [r4, #24]	@ unaligned
  79:main.c        ****     UART_PutString(cadena_uart);
 176              		.loc 1 79 0
 177 0018 2046     		mov	r0, r4
 178 001a FFF7FEFF 		bl	UART_PutString
 179              	.LVL5:
  80:main.c        ****     UART_PutChar(0xA);
 180              		.loc 1 80 0
 181 001e 0A20     		movs	r0, #10
 182 0020 FFF7FEFF 		bl	UART_PutChar
 183              	.LVL6:
  81:main.c        ****     UART_PutChar(0xD);
 184              		.loc 1 81 0
 185 0024 0D20     		movs	r0, #13
 186 0026 FFF7FEFF 		bl	UART_PutChar
 187              	.LVL7:
  82:main.c        ****     sprintf(cadena_uart, "1: Modo Apagado");
 188              		.loc 1 82 0
 189 002a 204D     		ldr	r5, .L20+8
 190 002c 0FCD     		ldmia	r5!, {r0, r1, r2, r3}
 191 002e 2060     		str	r0, [r4]	@ unaligned
 192 0030 6160     		str	r1, [r4, #4]	@ unaligned
 193 0032 A260     		str	r2, [r4, #8]	@ unaligned
 194 0034 E360     		str	r3, [r4, #12]	@ unaligned
  83:main.c        ****     UART_PutString(cadena_uart);
 195              		.loc 1 83 0
 196 0036 2046     		mov	r0, r4
ARM GAS  C:\Users\emili\AppData\Local\Temp\ccjLZZgI.s 			page 6


 197 0038 FFF7FEFF 		bl	UART_PutString
 198              	.LVL8:
  84:main.c        ****     UART_PutChar(0xA);
 199              		.loc 1 84 0
 200 003c 0A20     		movs	r0, #10
 201 003e FFF7FEFF 		bl	UART_PutChar
 202              	.LVL9:
  85:main.c        ****     UART_PutChar(0xD);
 203              		.loc 1 85 0
 204 0042 0D20     		movs	r0, #13
 205 0044 FFF7FEFF 		bl	UART_PutChar
 206              	.LVL10:
  86:main.c        ****     sprintf(cadena_uart, "2: Modo Normal");
 207              		.loc 1 86 0
 208 0048 194B     		ldr	r3, .L20+12
 209 004a 07CB     		ldmia	r3!, {r0, r1, r2}
 210 004c 2060     		str	r0, [r4]	@ unaligned
 211 004e 6160     		str	r1, [r4, #4]	@ unaligned
 212 0050 A260     		str	r2, [r4, #8]	@ unaligned
 213 0052 1A88     		ldrh	r2, [r3]	@ unaligned
 214 0054 9B78     		ldrb	r3, [r3, #2]	@ zero_extendqisi2
 215 0056 A281     		strh	r2, [r4, #12]	@ unaligned
 216 0058 A373     		strb	r3, [r4, #14]
  87:main.c        ****     UART_PutString(cadena_uart);
 217              		.loc 1 87 0
 218 005a 2046     		mov	r0, r4
 219 005c FFF7FEFF 		bl	UART_PutString
 220              	.LVL11:
  88:main.c        ****     UART_PutChar(0xA);
 221              		.loc 1 88 0
 222 0060 0A20     		movs	r0, #10
 223 0062 FFF7FEFF 		bl	UART_PutChar
 224              	.LVL12:
  89:main.c        ****     UART_PutChar(0xD);
 225              		.loc 1 89 0
 226 0066 0D20     		movs	r0, #13
 227 0068 FFF7FEFF 		bl	UART_PutChar
 228              	.LVL13:
  90:main.c        ****     sprintf(cadena_uart, "3: Modo Peligro");
 229              		.loc 1 90 0
 230 006c 114D     		ldr	r5, .L20+16
 231 006e 0FCD     		ldmia	r5!, {r0, r1, r2, r3}
 232 0070 2060     		str	r0, [r4]	@ unaligned
 233 0072 6160     		str	r1, [r4, #4]	@ unaligned
 234 0074 A260     		str	r2, [r4, #8]	@ unaligned
 235 0076 E360     		str	r3, [r4, #12]	@ unaligned
  91:main.c        ****     UART_PutString(cadena_uart);
 236              		.loc 1 91 0
 237 0078 2046     		mov	r0, r4
 238 007a FFF7FEFF 		bl	UART_PutString
 239              	.LVL14:
  92:main.c        ****     UART_PutChar(0xA);
 240              		.loc 1 92 0
 241 007e 0A20     		movs	r0, #10
 242 0080 FFF7FEFF 		bl	UART_PutChar
 243              	.LVL15:
  93:main.c        ****     UART_PutChar(0xD);
ARM GAS  C:\Users\emili\AppData\Local\Temp\ccjLZZgI.s 			page 7


 244              		.loc 1 93 0
 245 0084 0D20     		movs	r0, #13
 246 0086 FFF7FEFF 		bl	UART_PutChar
 247              	.LVL16:
  94:main.c        ****     sprintf(cadena_uart, "4: Modo Alarma");
 248              		.loc 1 94 0
 249 008a 0B4B     		ldr	r3, .L20+20
 250 008c 07CB     		ldmia	r3!, {r0, r1, r2}
 251 008e 2060     		str	r0, [r4]	@ unaligned
 252 0090 6160     		str	r1, [r4, #4]	@ unaligned
 253 0092 A260     		str	r2, [r4, #8]	@ unaligned
 254 0094 1A88     		ldrh	r2, [r3]	@ unaligned
 255 0096 9B78     		ldrb	r3, [r3, #2]	@ zero_extendqisi2
 256 0098 A281     		strh	r2, [r4, #12]	@ unaligned
 257 009a A373     		strb	r3, [r4, #14]
  95:main.c        ****     UART_PutString(cadena_uart);
 258              		.loc 1 95 0
 259 009c 2046     		mov	r0, r4
 260 009e FFF7FEFF 		bl	UART_PutString
 261              	.LVL17:
 262 00a2 38BD     		pop	{r3, r4, r5, pc}
 263              	.L21:
 264              		.align	2
 265              	.L20:
 266 00a4 00000000 		.word	cadena_uart
 267 00a8 00000000 		.word	.LC0
 268 00ac 1C000000 		.word	.LC1
 269 00b0 2C000000 		.word	.LC2
 270 00b4 3C000000 		.word	.LC3
 271 00b8 4C000000 		.word	.LC4
 272              		.cfi_endproc
 273              	.LFE66:
 274              		.size	menu, .-menu
 275              		.section	.text.configuracionInicial,"ax",%progbits
 276              		.align	2
 277              		.global	configuracionInicial
 278              		.thumb
 279              		.thumb_func
 280              		.type	configuracionInicial, %function
 281              	configuracionInicial:
 282              	.LFB67:
  96:main.c        **** }
  97:main.c        **** 
  98:main.c        **** void configuracionInicial() {
 283              		.loc 1 98 0
 284              		.cfi_startproc
 285              		@ args = 0, pretend = 0, frame = 0
 286              		@ frame_needed = 0, uses_anonymous_args = 0
 287 0000 08B5     		push	{r3, lr}
 288              		.cfi_def_cfa_offset 8
 289              		.cfi_offset 3, -8
 290              		.cfi_offset 14, -4
  99:main.c        ****     // Inicializar 
 100:main.c        **** 
 101:main.c        ****     // Activar interrupciones globales
 102:main.c        ****     CyGlobalIntEnable; 
 291              		.loc 1 102 0
ARM GAS  C:\Users\emili\AppData\Local\Temp\ccjLZZgI.s 			page 8


 292              		.syntax unified
 293              	@ 102 "main.c" 1
 294 0002 62B6     		CPSIE   i
 295              	@ 0 "" 2
 103:main.c        **** 
 104:main.c        ****     // Activar interrupcion del UART
 105:main.c        ****     IRQ_UART_StartEx(IRQ_UART);
 296              		.loc 1 105 0
 297              		.thumb
 298              		.syntax unified
 299 0004 0448     		ldr	r0, .L24
 300 0006 FFF7FEFF 		bl	IRQ_UART_StartEx
 301              	.LVL18:
 106:main.c        **** 
 107:main.c        ****     // Iniciar el componente UART
 108:main.c        ****     UART_Start();
 302              		.loc 1 108 0
 303 000a FFF7FEFF 		bl	UART_Start
 304              	.LVL19:
 109:main.c        **** 
 110:main.c        ****     // Por defecto el MOTOR 2 esta encencido
 111:main.c        ****     MOTOR2_Write(1);
 305              		.loc 1 111 0
 306 000e 0120     		movs	r0, #1
 307 0010 FFF7FEFF 		bl	MOTOR2_Write
 308              	.LVL20:
 309 0014 08BD     		pop	{r3, pc}
 310              	.L25:
 311 0016 00BF     		.align	2
 312              	.L24:
 313 0018 00000000 		.word	IRQ_UART
 314              		.cfi_endproc
 315              	.LFE67:
 316              		.size	configuracionInicial, .-configuracionInicial
 317              		.section	.text.getLuminosidad,"ax",%progbits
 318              		.align	2
 319              		.global	getLuminosidad
 320              		.thumb
 321              		.thumb_func
 322              		.type	getLuminosidad, %function
 323              	getLuminosidad:
 324              	.LFB68:
 112:main.c        **** }
 113:main.c        **** 
 114:main.c        **** 
 115:main.c        **** // **** Funcion que leen y retornan los valores actuales de los sensores
 116:main.c        **** // A menos que se mamneje por interrupciones
 117:main.c        **** 
 118:main.c        **** // Luminosidad: 
 119:main.c        **** float getLuminosidad() {
 325              		.loc 1 119 0
 326              		.cfi_startproc
 327              		@ args = 0, pretend = 0, frame = 0
 328              		@ frame_needed = 0, uses_anonymous_args = 0
 329              		@ link register save eliminated.
 120:main.c        ****     // Para implementar
 121:main.c        ****     return 1.1;
ARM GAS  C:\Users\emili\AppData\Local\Temp\ccjLZZgI.s 			page 9


 122:main.c        **** }
 330              		.loc 1 122 0
 331 0000 0048     		ldr	r0, .L27
 332 0002 7047     		bx	lr
 333              	.L28:
 334              		.align	2
 335              	.L27:
 336 0004 CDCC8C3F 		.word	1066192077
 337              		.cfi_endproc
 338              	.LFE68:
 339              		.size	getLuminosidad, .-getLuminosidad
 340              		.section	.text.getDistancia,"ax",%progbits
 341              		.align	2
 342              		.global	getDistancia
 343              		.thumb
 344              		.thumb_func
 345              		.type	getDistancia, %function
 346              	getDistancia:
 347              	.LFB69:
 123:main.c        **** 
 124:main.c        **** // DISTANCIA
 125:main.c        **** 
 126:main.c        **** // se lee el dato procesado del Ultrasonido
 127:main.c        **** 
 128:main.c        **** float getDistancia() {
 348              		.loc 1 128 0
 349              		.cfi_startproc
 350              		@ args = 0, pretend = 0, frame = 0
 351              		@ frame_needed = 0, uses_anonymous_args = 0
 352              		@ link register save eliminated.
 129:main.c        ****     // Para implementar
 130:main.c        ****     return 1.1;
 131:main.c        **** }
 353              		.loc 1 131 0
 354 0000 0048     		ldr	r0, .L30
 355 0002 7047     		bx	lr
 356              	.L31:
 357              		.align	2
 358              	.L30:
 359 0004 CDCC8C3F 		.word	1066192077
 360              		.cfi_endproc
 361              	.LFE69:
 362              		.size	getDistancia, .-getDistancia
 363              		.section	.text.Activar_Engine1,"ax",%progbits
 364              		.align	2
 365              		.global	Activar_Engine1
 366              		.thumb
 367              		.thumb_func
 368              		.type	Activar_Engine1, %function
 369              	Activar_Engine1:
 370              	.LFB70:
 132:main.c        **** 
 133:main.c        **** 
 134:main.c        **** 
 135:main.c        **** // Funcion de ayuda que evita activar el motor 1 cuando ya esta activado
 136:main.c        **** void Activar_Engine1() {
 371              		.loc 1 136 0
ARM GAS  C:\Users\emili\AppData\Local\Temp\ccjLZZgI.s 			page 10


 372              		.cfi_startproc
 373              		@ args = 0, pretend = 0, frame = 0
 374              		@ frame_needed = 0, uses_anonymous_args = 0
 375 0000 08B5     		push	{r3, lr}
 376              		.cfi_def_cfa_offset 8
 377              		.cfi_offset 3, -8
 378              		.cfi_offset 14, -4
 137:main.c        ****     if (MOTOR1_Read() != 1)
 379              		.loc 1 137 0
 380 0002 FFF7FEFF 		bl	MOTOR1_Read
 381              	.LVL21:
 382 0006 0128     		cmp	r0, #1
 383 0008 02D0     		beq	.L32
 138:main.c        ****         MOTOR1_Write(1);
 384              		.loc 1 138 0
 385 000a 0120     		movs	r0, #1
 386 000c FFF7FEFF 		bl	MOTOR1_Write
 387              	.LVL22:
 388              	.L32:
 389 0010 08BD     		pop	{r3, pc}
 390              		.cfi_endproc
 391              	.LFE70:
 392              		.size	Activar_Engine1, .-Activar_Engine1
 393              		.global	__aeabi_fcmplt
 394              		.global	__aeabi_fcmpgt
 395 0012 00BF     		.section	.text.main,"ax",%progbits
 396              		.align	2
 397              		.global	main
 398              		.thumb
 399              		.thumb_func
 400              		.type	main, %function
 401              	main:
 402              	.LFB71:
 139:main.c        **** }
 140:main.c        **** 
 141:main.c        **** int main(void)
 142:main.c        **** {
 403              		.loc 1 142 0
 404              		.cfi_startproc
 405              		@ args = 0, pretend = 0, frame = 0
 406              		@ frame_needed = 0, uses_anonymous_args = 0
 407 0000 38B5     		push	{r3, r4, r5, lr}
 408              		.cfi_def_cfa_offset 16
 409              		.cfi_offset 3, -16
 410              		.cfi_offset 4, -12
 411              		.cfi_offset 5, -8
 412              		.cfi_offset 14, -4
 143:main.c        **** 
 144:main.c        ****     configuracionInicial();
 413              		.loc 1 144 0
 414 0002 FFF7FEFF 		bl	configuracionInicial
 415              	.LVL23:
 145:main.c        **** 
 146:main.c        ****     float distancia, luminosidad;
 147:main.c        **** 
 148:main.c        ****     menu();
 416              		.loc 1 148 0
ARM GAS  C:\Users\emili\AppData\Local\Temp\ccjLZZgI.s 			page 11


 417 0006 FFF7FEFF 		bl	menu
 418              	.LVL24:
 419              	.L36:
 149:main.c        ****     for (;;)
 150:main.c        ****     {
 151:main.c        ****         if (MODO == '1')
 420              		.loc 1 151 0
 421 000a 1F4B     		ldr	r3, .L52
 422 000c 1B78     		ldrb	r3, [r3]	@ zero_extendqisi2
 423 000e 312B     		cmp	r3, #49
 424 0010 FBD0     		beq	.L36
 152:main.c        ****         {
 153:main.c        ****             // APAGADO = NO SE HACE NADA
 154:main.c        ****             continue;
 155:main.c        ****         }
 156:main.c        ****         else if (MODO == '2')
 425              		.loc 1 156 0
 426 0012 322B     		cmp	r3, #50
 427 0014 25D1     		bne	.L38
 157:main.c        ****         {
 158:main.c        ****             // MODO NORMAL
 159:main.c        **** 
 160:main.c        ****             // ** Lectura de valores de Sensores **
 161:main.c        ****             distancia = getDistancia();
 428              		.loc 1 161 0
 429 0016 FFF7FEFF 		bl	getDistancia
 430              	.LVL25:
 431 001a 0546     		mov	r5, r0
 432              	.LVL26:
 162:main.c        ****             luminosidad = getLuminosidad();
 433              		.loc 1 162 0
 434 001c FFF7FEFF 		bl	getLuminosidad
 435              	.LVL27:
 436 0020 0446     		mov	r4, r0
 437              	.LVL28:
 163:main.c        **** 
 164:main.c        ****             if (distancia < 2) {
 438              		.loc 1 164 0
 439 0022 4FF08041 		mov	r1, #1073741824
 440 0026 2846     		mov	r0, r5
 441              	.LVL29:
 442 0028 FFF7FEFF 		bl	__aeabi_fcmplt
 443              	.LVL30:
 444 002c 10B1     		cbz	r0, .L50
 165:main.c        ****                 Activar_Engine1();
 445              		.loc 1 165 0
 446 002e FFF7FEFF 		bl	Activar_Engine1
 447              	.LVL31:
 448 0032 0CE0     		b	.L41
 449              	.L50:
 166:main.c        ****             } 
 167:main.c        ****             else {
 168:main.c        ****                 if (luminosidad > 100 && distancia < 10)
 450              		.loc 1 168 0
 451 0034 1549     		ldr	r1, .L52+4
 452 0036 2046     		mov	r0, r4
 453 0038 FFF7FEFF 		bl	__aeabi_fcmpgt
ARM GAS  C:\Users\emili\AppData\Local\Temp\ccjLZZgI.s 			page 12


 454              	.LVL32:
 455 003c 38B1     		cbz	r0, .L41
 456              		.loc 1 168 0 is_stmt 0 discriminator 1
 457 003e 1449     		ldr	r1, .L52+8
 458 0040 2846     		mov	r0, r5
 459 0042 FFF7FEFF 		bl	__aeabi_fcmplt
 460              	.LVL33:
 461 0046 10B1     		cbz	r0, .L41
 169:main.c        ****                     BUZZER_Write(1); // Se activa el buzzer
 462              		.loc 1 169 0 is_stmt 1
 463 0048 0120     		movs	r0, #1
 464 004a FFF7FEFF 		bl	BUZZER_Write
 465              	.LVL34:
 466              	.L41:
 170:main.c        ****             }
 171:main.c        **** 
 172:main.c        ****             if (luminosidad < 100)
 467              		.loc 1 172 0
 468 004e 0F49     		ldr	r1, .L52+4
 469 0050 2046     		mov	r0, r4
 470 0052 FFF7FEFF 		bl	__aeabi_fcmplt
 471              	.LVL35:
 472 0056 0028     		cmp	r0, #0
 473 0058 D7D0     		beq	.L36
 173:main.c        ****                 MOTOR2_Write(0);
 474              		.loc 1 173 0
 475 005a 0020     		movs	r0, #0
 476 005c FFF7FEFF 		bl	MOTOR2_Write
 477              	.LVL36:
 478 0060 D3E7     		b	.L36
 479              	.LVL37:
 480              	.L38:
 174:main.c        **** 
 175:main.c        ****         }
 176:main.c        ****         else if (MODO == '3')
 481              		.loc 1 176 0
 482 0062 332B     		cmp	r3, #51
 483 0064 06D1     		bne	.L45
 177:main.c        ****         {
 178:main.c        ****             // MODO PELIGRO
 179:main.c        ****             // EL AIRBAG SE DESPLIEGA.
 180:main.c        ****             MOTOR1_Write(1);
 484              		.loc 1 180 0
 485 0066 0120     		movs	r0, #1
 486 0068 FFF7FEFF 		bl	MOTOR1_Write
 487              	.LVL38:
 181:main.c        **** 
 182:main.c        ****             // MOTOR 2 SE PARA
 183:main.c        ****             MOTOR2_Write(0);
 488              		.loc 1 183 0
 489 006c 0020     		movs	r0, #0
 490 006e FFF7FEFF 		bl	MOTOR2_Write
 491              	.LVL39:
 492 0072 CAE7     		b	.L36
 493              	.L45:
 184:main.c        ****         }
 185:main.c        ****         else if (MODO == '4')
ARM GAS  C:\Users\emili\AppData\Local\Temp\ccjLZZgI.s 			page 13


 494              		.loc 1 185 0
 495 0074 342B     		cmp	r3, #52
 496 0076 C8D1     		bne	.L36
 186:main.c        ****         {
 187:main.c        ****             // MODO ALAMAR
 188:main.c        ****             BUZZER_Write(1);
 497              		.loc 1 188 0
 498 0078 0120     		movs	r0, #1
 499 007a FFF7FEFF 		bl	BUZZER_Write
 500              	.LVL40:
 189:main.c        ****             enable_led = '1'; // timer de 2 segundos para apagar/prender la coneccion dependiendo d
 501              		.loc 1 189 0
 502 007e 3122     		movs	r2, #49
 503 0080 044B     		ldr	r3, .L52+12
 504 0082 1A70     		strb	r2, [r3]
 505 0084 C1E7     		b	.L36
 506              	.L53:
 507 0086 00BF     		.align	2
 508              	.L52:
 509 0088 00000000 		.word	MODO
 510 008c 0000C842 		.word	1120403456
 511 0090 00002041 		.word	1092616192
 512 0094 00000000 		.word	.LANCHOR0
 513              		.cfi_endproc
 514              	.LFE71:
 515              		.size	main, .-main
 516              		.global	enable_led
 517              		.comm	MODO,1,1
 518              		.comm	cadena_uart,100,4
 519              		.comm	uart_in,1,1
 520              		.data
 521              		.set	.LANCHOR0,. + 0
 522              		.type	enable_led, %object
 523              		.size	enable_led, 1
 524              	enable_led:
 525 0000 30       		.byte	48
 526              		.section	.rodata.str1.4,"aMS",%progbits,1
 527              		.align	2
 528              	.LC0:
 529 0000 53656C65 		.ascii	"Seleccione una de los MODOS\000"
 529      6363696F 
 529      6E652075 
 529      6E612064 
 529      65206C6F 
 530              	.LC1:
 531 001c 313A204D 		.ascii	"1: Modo Apagado\000"
 531      6F646F20 
 531      41706167 
 531      61646F00 
 532              	.LC2:
 533 002c 323A204D 		.ascii	"2: Modo Normal\000"
 533      6F646F20 
 533      4E6F726D 
 533      616C00
 534 003b 00       		.space	1
 535              	.LC3:
 536 003c 333A204D 		.ascii	"3: Modo Peligro\000"
ARM GAS  C:\Users\emili\AppData\Local\Temp\ccjLZZgI.s 			page 14


 536      6F646F20 
 536      50656C69 
 536      67726F00 
 537              	.LC4:
 538 004c 343A204D 		.ascii	"4: Modo Alarma\000"
 538      6F646F20 
 538      416C6172 
 538      6D6100
 539              		.text
 540              	.Letext0:
 541              		.file 2 "c:\\program files (x86)\\cypress\\psoc creator\\4.4\\psoc creator\\import\\gnu\\arm\\5.4.
 542              		.file 3 "c:\\program files (x86)\\cypress\\psoc creator\\4.4\\psoc creator\\import\\gnu\\arm\\5.4.
 543              		.file 4 "Generated_Source\\PSoC5/core_cm3.h"
 544              		.file 5 "Generated_Source\\PSoC5/UART.h"
 545              		.file 6 "Generated_Source\\PSoC5/Timer1.h"
 546              		.file 7 "Generated_Source\\PSoC5/LED.h"
 547              		.file 8 "Generated_Source\\PSoC5/IRQ_UART.h"
 548              		.file 9 "Generated_Source\\PSoC5/MOTOR2.h"
 549              		.file 10 "Generated_Source\\PSoC5/MOTOR1.h"
 550              		.file 11 "Generated_Source\\PSoC5/BUZZER.h"